target datalayout = "e-m:e-p270:32:32-p271:32:32-p272:64:64-i64:64-i128:128-f80:128-n8:16:32:64-S128"
target triple = "x86_64-pc-linux-gnu"

@.str.1 = private unnamed_addr constant [101 x i8] c"generated/home/dtcxzyw/WorkSpace/Projects/compilers/llvm-opt-benchmark/bench/hdf5/hdf5/src/H5Plapl.c\00", align 1
@H5E_PLIST_g = external global i64, align 8
@H5E_BADTYPE_g = external global i64, align 8
@H5P_CLS_FILE_ACCESS_ID_g = external global i64, align 8
@.str.27 = private unnamed_addr constant [24 x i8] c"can't get property list\00", align 1
@H5E_CANTCOPY_g = external global i64, align 8
@.str.28 = private unnamed_addr constant [41 x i8] c"unable to copy file access property list\00", align 1
@__func__.H5P__lacc_elink_fapl_copy = private unnamed_addr constant [26 x i8] c"H5P__lacc_elink_fapl_copy\00", align 1

; Function Attrs: nounwind uwtable
define internal i32 @H5P__lacc_elink_fapl_copy(ptr noundef %0, i64 noundef %1, ptr noundef %2) #0 {
  %4 = alloca ptr, align 8
  %5 = alloca i64, align 8
  %6 = alloca ptr, align 8
  %7 = alloca i64, align 8
  %8 = alloca i32, align 4
  %9 = alloca i8, align 1
  %10 = alloca ptr, align 8
  store ptr %0, ptr %4, align 8
  store i64 %1, ptr %5, align 8
  store ptr %2, ptr %6, align 8
  store i32 0, ptr %8, align 4
  store i8 0, ptr %9, align 1
  %11 = load ptr, ptr %6, align 8
  %12 = load i64, ptr %11, align 8
  store i64 %12, ptr %7, align 8
  %13 = load i64, ptr %7, align 8
  %14 = icmp ne i64 %13, 0
  br i1 %14, label %15, label %56

15:                                               ; preds = %3
  %16 = load i64, ptr %7, align 8
  %17 = load i64, ptr @H5P_CLS_FILE_ACCESS_ID_g, align 8
  %18 = call ptr @H5P_object_verify(i64 noundef %16, i64 noundef %17)
  store ptr %18, ptr %10, align 8
  %19 = icmp eq ptr null, %18
  br i1 %19, label %20, label %35

20:                                               ; preds = %15
  br label %21

21:                                               ; preds = %20
  br label %22

22:                                               ; preds = %21
  br label %23

23:                                               ; preds = %22
  %24 = load i64, ptr @H5E_PLIST_g, align 8
  %25 = load i64, ptr @H5E_BADTYPE_g, align 8
  %26 = call i32 (ptr, ptr, i32, i64, i64, ptr, ...) @H5E_printf_stack(ptr noundef @.str.1, ptr noundef @__func__.H5P__lacc_elink_fapl_copy, i32 noundef 496, i64 noundef %24, i64 noundef %25, ptr noundef @.str.27)
  br label %27

27:                                               ; preds = %23
  store i8 1, ptr %9, align 1
  %28 = load i8, ptr %9, align 1
  %29 = trunc i8 %28 to i1
  %30 = zext i1 %29 to i8
  store i8 %30, ptr %9, align 1
  br label %31

31:                                               ; preds = %27
  br label %32

32:                                               ; preds = %31
  store i32 -1, ptr %8, align 4
  br label %57

33:                                               ; No predecessors!
  br label %34

34:                                               ; preds = %33
  br label %35

35:                                               ; preds = %34, %15
  %36 = load ptr, ptr %10, align 8
  %37 = call i64 @H5P_copy_plist(ptr noundef %36, i1 noundef zeroext false)
  %38 = load ptr, ptr %6, align 8
  store i64 %37, ptr %38, align 8
  %39 = icmp slt i64 %37, 0
  br i1 %39, label %40, label %55

40:                                               ; preds = %35
  br label %41

41:                                               ; preds = %40
  br label %42

42:                                               ; preds = %41
  br label %43

43:                                               ; preds = %42
  %44 = load i64, ptr @H5E_PLIST_g, align 8
  %45 = load i64, ptr @H5E_CANTCOPY_g, align 8
  %46 = call i32 (ptr, ptr, i32, i64, i64, ptr, ...) @H5E_printf_stack(ptr noundef @.str.1, ptr noundef @__func__.H5P__lacc_elink_fapl_copy, i32 noundef 498, i64 noundef %44, i64 noundef %45, ptr noundef @.str.28)
  br label %47

47:                                               ; preds = %43
  store i8 1, ptr %9, align 1
  %48 = load i8, ptr %9, align 1
  %49 = trunc i8 %48 to i1
  %50 = zext i1 %49 to i8
  store i8 %50, ptr %9, align 1
  br label %51

51:                                               ; preds = %47
  br label %52

52:                                               ; preds = %51
  store i32 -1, ptr %8, align 4
  br label %57

53:                                               ; No predecessors!
  br label %54

54:                                               ; preds = %53
  br label %55

55:                                               ; preds = %54, %35
  br label %56

56:                                               ; preds = %55, %3
  br label %57

57:                                               ; preds = %56, %52, %32
  %58 = load i32, ptr %8, align 4
  ret i32 %58
}