; Function Attrs: nounwind uwtable
define internal range(i32 -1, 1) i32 @H5P__lacc_elink_fapl_copy(ptr readnone captures(none) %0, i64 %1, ptr noundef captures(none) %2) #0 {
  %4 = load i64, ptr %2, align 8
  %.not = icmp eq i64 %4, 0
  br i1 %.not, label %20, label %5

5:                                                ; preds = %3
  %6 = load i64, ptr @H5P_CLS_FILE_ACCESS_ID_g, align 8
  %7 = tail call ptr @H5P_object_verify(i64 noundef %4, i64 noundef %6) #8
  %8 = icmp eq ptr %7, null
  br i1 %8, label %9, label %13

9:                                                ; preds = %5
  %10 = load i64, ptr @H5E_PLIST_g, align 8
  %11 = load i64, ptr @H5E_BADTYPE_g, align 8
  %12 = tail call i32 (ptr, ptr, i32, i64, i64, ptr, ...) @H5E_printf_stack(ptr noundef nonnull @.str.1, ptr noundef nonnull @__func__.H5P__lacc_elink_fapl_copy, i32 noundef 496, i64 noundef %10, i64 noundef %11, ptr noundef nonnull @.str.27) #8
  br label %20

13:                                               ; preds = %5
  %14 = tail call i64 @H5P_copy_plist(ptr noundef nonnull %7, i1 noundef zeroext false) #8
  store i64 %14, ptr %2, align 8
  %15 = icmp slt i64 %14, 0
  br i1 %15, label %16, label %20

16:                                               ; preds = %13
  %17 = load i64, ptr @H5E_PLIST_g, align 8
  %18 = load i64, ptr @H5E_CANTCOPY_g, align 8
  %19 = tail call i32 (ptr, ptr, i32, i64, i64, ptr, ...) @H5E_printf_stack(ptr noundef nonnull @.str.1, ptr noundef nonnull @__func__.H5P__lacc_elink_fapl_copy, i32 noundef 498, i64 noundef %17, i64 noundef %18, ptr noundef nonnull @.str.28) #8
  br label %20

20:                                               ; preds = %3, %13, %16, %9
  %.0 = phi i32 [ -1, %9 ], [ -1, %16 ], [ 0, %13 ], [ 0, %3 ]
  ret i32 %.0
}